; Function Attrs: null_pointer_is_valid sspstrong uwtable
define internal void @add_foreach_decode_as(ptr noundef %0, ptr readnone captures(none) %1, ptr noundef %2) #0 {
  %4 = tail call ptr @find_dissector_table(ptr noundef %0)
  %5 = tail call zeroext i1 @dissector_table_supports_decode_as(ptr noundef %4)
  br i1 %5, label %6, label %7

6:                                                ; preds = %3
  tail call void @dissector_add_for_decode_as(ptr noundef %0, ptr noundef %2)
  br label %7

7:                                                ; preds = %6, %3
  ret void
}